target datalayout = "e-m:e-p270:32:32-p271:32:32-p272:64:64-i64:64-i128:128-f80:128-n8:16:32:64-S128"
target triple = "x86_64-pc-linux-gnu"

%class.Phase = type { i32, ptr }
%class.LibraryCallKit = type <{ %class.GraphKit.base, [4 x i8], ptr, ptr, i32, [4 x i8] }>
%class.GraphKit.base = type <{ ptr, %class.Phase, ptr, ptr, ptr, ptr, i32, [4 x i8], ptr, ptr, i32 }>
%class.JVMState = type { ptr, i32, i32, i32, i32, i32, i32, i32, i32, i32, ptr, ptr }
%class.SafePointNode = type <{ %class.MultiNode.base, [4 x i8], ptr, ptr, %class.ReplacedNodes, i8, [7 x i8] }>
%class.MultiNode.base = type { %class.Node.base }
%class.Node.base = type <{ ptr, ptr, ptr, i32, i32, i32, i32, i32, i32, i32 }>
%class.ReplacedNodes = type { ptr }
%class.GraphKit = type <{ ptr, %class.Phase, ptr, ptr, ptr, ptr, i32, [4 x i8], ptr, ptr, i32, [4 x i8] }>
%class.Node = type <{ ptr, ptr, ptr, i32, i32, i32, i32, i32, i32, i32, [4 x i8] }>

; Function Attrs: mustprogress nounwind uwtable
define linkonce_odr hidden noundef ptr @_ZNK4Node2inEj(ptr noundef nonnull align 8 dereferenceable(52) %0, i32 noundef %1) #1 comdat align 2 {
  %3 = alloca ptr, align 8
  %4 = alloca i32, align 4
  store ptr %0, ptr %3, align 8
  store i32 %1, ptr %4, align 4
  %5 = load ptr, ptr %3, align 8
  %6 = getelementptr inbounds %class.Node, ptr %5, i32 0, i32 1
  %7 = load ptr, ptr %6, align 8
  %8 = load i32, ptr %4, align 4
  %9 = zext i32 %8 to i64
  %10 = getelementptr inbounds ptr, ptr %7, i64 %9
  %11 = load ptr, ptr %10, align 8
  ret ptr %11
}

; Function Attrs: mustprogress nounwind uwtable
define linkonce_odr hidden void @_ZNK13SafePointNode12verify_inputEP8JVMStatej(ptr noundef nonnull align 8 dereferenceable(81) %0, ptr noundef %1, i32 noundef %2) #1 comdat align 2 {
  %4 = alloca ptr, align 8
  %5 = alloca ptr, align 8
  %6 = alloca i32, align 4
  %7 = alloca ptr, align 8
  store ptr %0, ptr %4, align 8
  store ptr %1, ptr %5, align 8
  store i32 %2, ptr %6, align 4
  %8 = load ptr, ptr %4, align 8
  %9 = load i32, ptr %6, align 4
  %10 = call noundef ptr @_ZNK4Node2inEj(ptr noundef nonnull align 8 dereferenceable(52) %8, i32 noundef %9)
  store ptr %10, ptr %7, align 8
  ret void
}

; Function Attrs: mustprogress nounwind uwtable
define linkonce_odr hidden noundef i32 @_ZNK8JVMState6argoffEv(ptr noundef nonnull align 8 dereferenceable(64) %0) #1 comdat align 2 {
  %2 = alloca ptr, align 8
  store ptr %0, ptr %2, align 8
  %3 = load ptr, ptr %2, align 8
  %4 = getelementptr inbounds %class.JVMState, ptr %3, i32 0, i32 3
  %5 = load i32, ptr %4, align 8
  %6 = getelementptr inbounds %class.JVMState, ptr %3, i32 0, i32 7
  %7 = load i32, ptr %6, align 8
  %8 = add i32 %5, %7
  ret i32 %8
}

; Function Attrs: mustprogress nounwind uwtable
define linkonce_odr hidden noundef ptr @_ZNK13SafePointNode8argumentEP8JVMStatej(ptr noundef nonnull align 8 dereferenceable(81) %0, ptr noundef %1, i32 noundef %2) #1 comdat align 2 {
  %4 = alloca ptr, align 8
  %5 = alloca ptr, align 8
  %6 = alloca i32, align 4
  store ptr %0, ptr %4, align 8
  store ptr %1, ptr %5, align 8
  store i32 %2, ptr %6, align 4
  %7 = load ptr, ptr %4, align 8
  %8 = load ptr, ptr %5, align 8
  %9 = load ptr, ptr %5, align 8
  %10 = call noundef i32 @_ZNK8JVMState6argoffEv(ptr noundef nonnull align 8 dereferenceable(64) %9)
  %11 = load i32, ptr %6, align 4
  %12 = add i32 %10, %11
  call void @_ZNK13SafePointNode12verify_inputEP8JVMStatej(ptr noundef nonnull align 8 dereferenceable(81) %7, ptr noundef %8, i32 noundef %12)
  %13 = load ptr, ptr %5, align 8
  %14 = call noundef i32 @_ZNK8JVMState6argoffEv(ptr noundef nonnull align 8 dereferenceable(64) %13)
  %15 = load i32, ptr %6, align 4
  %16 = add i32 %14, %15
  %17 = call noundef ptr @_ZNK4Node2inEj(ptr noundef nonnull align 8 dereferenceable(52) %7, i32 noundef %16)
  ret ptr %17
}

; Function Attrs: mustprogress nounwind uwtable
define linkonce_odr hidden noundef ptr @_ZNK8GraphKit12map_not_nullEv(ptr noundef nonnull align 8 dereferenceable(84) %0) #1 comdat align 2 {
  %2 = alloca ptr, align 8
  store ptr %0, ptr %2, align 8
  %3 = load ptr, ptr %2, align 8
  %4 = getelementptr inbounds %class.GraphKit, ptr %3, i32 0, i32 4
  %5 = load ptr, ptr %4, align 8
  ret ptr %5
}

; Function Attrs: mustprogress nounwind uwtable
define linkonce_odr hidden void @_ZN14LibraryCallKit10set_resultEP4Node(ptr noundef nonnull align 8 dereferenceable(108) %0, ptr noundef %1) #1 comdat align 2 {
  %3 = alloca ptr, align 8
  %4 = alloca ptr, align 8
  store ptr %0, ptr %3, align 8
  store ptr %1, ptr %4, align 8
  %5 = load ptr, ptr %3, align 8
  %6 = load ptr, ptr %4, align 8
  %7 = getelementptr inbounds %class.LibraryCallKit, ptr %5, i32 0, i32 3
  store ptr %6, ptr %7, align 8
  ret void
}

; Function Attrs: mustprogress nounwind uwtable
define linkonce_odr hidden noundef ptr @_ZNK8GraphKit6intconEi(ptr noundef nonnull align 8 dereferenceable(84) %0, i32 noundef %1) #1 comdat align 2 {
  %3 = alloca ptr, align 8
  %4 = alloca i32, align 4
  store ptr %0, ptr %3, align 8
  store i32 %1, ptr %4, align 4
  %5 = load ptr, ptr %3, align 8
  %6 = getelementptr inbounds %class.GraphKit, ptr %5, i32 0, i32 3
  %7 = load ptr, ptr %6, align 8
  %8 = load i32, ptr %4, align 4
  %9 = call noundef ptr @_ZN11PhaseValues6intconEi(ptr noundef nonnull align 8 dereferenceable(2400) %7, i32 noundef %8)
  ret ptr %9
}

; Function Attrs: mustprogress nounwind uwtable
define linkonce_odr hidden noundef ptr @_ZNK8GraphKit8argumentEj(ptr noundef nonnull align 8 dereferenceable(84) %0, i32 noundef %1) #1 comdat align 2 {
  %3 = alloca ptr, align 8
  %4 = alloca i32, align 4
  store ptr %0, ptr %3, align 8
  store i32 %1, ptr %4, align 4
  %5 = load ptr, ptr %3, align 8
  %6 = call noundef ptr @_ZNK8GraphKit12map_not_nullEv(ptr noundef nonnull align 8 dereferenceable(84) %5)
  %7 = getelementptr inbounds %class.GraphKit, ptr %5, i32 0, i32 4
  %8 = load ptr, ptr %7, align 8
  %9 = getelementptr inbounds %class.GraphKit, ptr %5, i32 0, i32 4
  %10 = load ptr, ptr %9, align 8
  %11 = getelementptr inbounds %class.SafePointNode, ptr %10, i32 0, i32 2
  %12 = load ptr, ptr %11, align 8
  %13 = load i32, ptr %4, align 4
  %14 = call noundef ptr @_ZNK13SafePointNode8argumentEP8JVMStatej(ptr noundef nonnull align 8 dereferenceable(81) %8, ptr noundef %12, i32 noundef %13)
  ret ptr %14
}

; Function Attrs: mustprogress nounwind uwtable
define hidden noundef zeroext i1 @_ZN14LibraryCallKit23inline_string_compareToEN16StrIntrinsicNode11ArgEncodingE(ptr noundef nonnull align 8 dereferenceable(108) %0, i32 noundef %1) #1 align 2 {
  %3 = alloca ptr, align 8
  %4 = alloca i32, align 4
  %5 = alloca ptr, align 8
  %6 = alloca ptr, align 8
  %7 = alloca ptr, align 8
  %8 = alloca ptr, align 8
  %9 = alloca ptr, align 8
  %10 = alloca ptr, align 8
  %11 = alloca ptr, align 8
  store ptr %0, ptr %3, align 8
  store i32 %1, ptr %4, align 4
  %12 = load ptr, ptr %3, align 8
  %13 = call noundef ptr @_ZNK8GraphKit8argumentEj(ptr noundef nonnull align 8 dereferenceable(84) %12, i32 noundef 0)
  store ptr %13, ptr %5, align 8
  %14 = call noundef ptr @_ZNK8GraphKit8argumentEj(ptr noundef nonnull align 8 dereferenceable(84) %12, i32 noundef 1)
  store ptr %14, ptr %6, align 8
  %15 = load ptr, ptr %5, align 8
  %16 = call noundef ptr @_ZN8GraphKit16must_be_not_nullEP4Nodeb(ptr noundef nonnull align 8 dereferenceable(84) %12, ptr noundef %15, i1 noundef zeroext true)
  store ptr %16, ptr %5, align 8
  %17 = load ptr, ptr %6, align 8
  %18 = call noundef ptr @_ZN8GraphKit16must_be_not_nullEP4Nodeb(ptr noundef nonnull align 8 dereferenceable(84) %12, ptr noundef %17, i1 noundef zeroext true)
  store ptr %18, ptr %6, align 8
  %19 = load ptr, ptr %5, align 8
  %20 = call noundef ptr @_ZNK8GraphKit6intconEi(ptr noundef nonnull align 8 dereferenceable(84) %12, i32 noundef 0)
  %21 = call noundef ptr @_ZN8GraphKit21array_element_addressEP4NodeS1_9BasicTypePK7TypeIntS1_(ptr noundef nonnull align 8 dereferenceable(84) %12, ptr noundef %19, ptr noundef %20, i8 noundef zeroext 8, ptr noundef null, ptr noundef null)
  store ptr %21, ptr %7, align 8
  %22 = load ptr, ptr %5, align 8
  %23 = call noundef ptr @_ZN8GraphKit17load_array_lengthEP4Node(ptr noundef nonnull align 8 dereferenceable(84) %12, ptr noundef %22)
  store ptr %23, ptr %8, align 8
  %24 = load ptr, ptr %6, align 8
  %25 = call noundef ptr @_ZNK8GraphKit6intconEi(ptr noundef nonnull align 8 dereferenceable(84) %12, i32 noundef 0)
  %26 = call noundef ptr @_ZN8GraphKit21array_element_addressEP4NodeS1_9BasicTypePK7TypeIntS1_(ptr noundef nonnull align 8 dereferenceable(84) %12, ptr noundef %24, ptr noundef %25, i8 noundef zeroext 8, ptr noundef null, ptr noundef null)
  store ptr %26, ptr %9, align 8
  %27 = load ptr, ptr %6, align 8
  %28 = call noundef ptr @_ZN8GraphKit17load_array_lengthEP4Node(ptr noundef nonnull align 8 dereferenceable(84) %12, ptr noundef %27)
  store ptr %28, ptr %10, align 8
  %29 = load ptr, ptr %7, align 8
  %30 = load ptr, ptr %8, align 8
  %31 = load ptr, ptr %9, align 8
  %32 = load ptr, ptr %10, align 8
  %33 = load i32, ptr %4, align 4
  %34 = call noundef ptr @_ZN14LibraryCallKit23make_string_method_nodeEiP4NodeS1_S1_S1_N16StrIntrinsicNode11ArgEncodingE(ptr noundef nonnull align 8 dereferenceable(108) %12, i32 noundef 334, ptr noundef %29, ptr noundef %30, ptr noundef %31, ptr noundef %32, i32 noundef %33)
  store ptr %34, ptr %11, align 8
  %35 = load ptr, ptr %11, align 8
  call void @_ZN14LibraryCallKit10set_resultEP4Node(ptr noundef nonnull align 8 dereferenceable(108) %12, ptr noundef %35)
  ret i1 true
}