; Function Attrs: mustprogress nounwind uwtable
define hidden noundef zeroext i1 @_ZN14LibraryCallKit23inline_string_compareToEN16StrIntrinsicNode11ArgEncodingE(ptr noundef nonnull align 8 dereferenceable(108) %0, i32 noundef %1) local_unnamed_addr #0 align 2 {
  %3 = getelementptr inbounds i8, ptr %0, i64 40
  %4 = load ptr, ptr %3, align 8
  %5 = getelementptr inbounds i8, ptr %4, i64 56
  %6 = load ptr, ptr %5, align 8
  %7 = getelementptr inbounds i8, ptr %6, i64 16
  %8 = load i32, ptr %7, align 8
  %9 = getelementptr inbounds i8, ptr %6, i64 32
  %10 = load i32, ptr %9, align 8
  %11 = add i32 %10, %8
  %12 = getelementptr inbounds i8, ptr %4, i64 8
  %13 = load ptr, ptr %12, align 8
  %14 = zext i32 %11 to i64
  %15 = getelementptr inbounds ptr, ptr %13, i64 %14
  %16 = load ptr, ptr %15, align 8
  %17 = add i32 %11, 1
  %18 = zext i32 %17 to i64
  %19 = getelementptr inbounds ptr, ptr %13, i64 %18
  %20 = load ptr, ptr %19, align 8
  %21 = tail call noundef ptr @_ZN8GraphKit16must_be_not_nullEP4Nodeb(ptr noundef nonnull align 8 dereferenceable(84) %0, ptr noundef %16, i1 noundef zeroext true) #13
  %22 = tail call noundef ptr @_ZN8GraphKit16must_be_not_nullEP4Nodeb(ptr noundef nonnull align 8 dereferenceable(84) %0, ptr noundef %20, i1 noundef zeroext true) #13
  %23 = getelementptr inbounds i8, ptr %0, i64 32
  %24 = load ptr, ptr %23, align 8
  %25 = tail call noundef ptr @_ZN11PhaseValues6intconEi(ptr noundef nonnull align 8 dereferenceable(2400) %24, i32 noundef 0) #13
  %26 = tail call noundef ptr @_ZN8GraphKit21array_element_addressEP4NodeS1_9BasicTypePK7TypeIntS1_(ptr noundef nonnull align 8 dereferenceable(84) %0, ptr noundef %21, ptr noundef %25, i8 noundef zeroext 8, ptr noundef null, ptr noundef null) #13
  %27 = tail call noundef ptr @_ZN8GraphKit17load_array_lengthEP4Node(ptr noundef nonnull align 8 dereferenceable(84) %0, ptr noundef %21) #13
  %28 = load ptr, ptr %23, align 8
  %29 = tail call noundef ptr @_ZN11PhaseValues6intconEi(ptr noundef nonnull align 8 dereferenceable(2400) %28, i32 noundef 0) #13
  %30 = tail call noundef ptr @_ZN8GraphKit21array_element_addressEP4NodeS1_9BasicTypePK7TypeIntS1_(ptr noundef nonnull align 8 dereferenceable(84) %0, ptr noundef %22, ptr noundef %29, i8 noundef zeroext 8, ptr noundef null, ptr noundef null) #13
  %31 = tail call noundef ptr @_ZN8GraphKit17load_array_lengthEP4Node(ptr noundef nonnull align 8 dereferenceable(84) %0, ptr noundef %22) #13
  %32 = tail call noundef ptr @_ZN14LibraryCallKit23make_string_method_nodeEiP4NodeS1_S1_S1_N16StrIntrinsicNode11ArgEncodingE(ptr noundef nonnull align 8 dereferenceable(108) %0, i32 noundef 334, ptr noundef %26, ptr noundef %27, ptr noundef %30, ptr noundef %31, i32 noundef %1)
  %33 = getelementptr inbounds i8, ptr %0, i64 96
  store ptr %32, ptr %33, align 8
  ret i1 true
}